; Function Attrs: mustprogress nofree norecurse nosync nounwind willreturn memory(read, inaccessiblemem: none) uwtable
define hidden noundef i64 @_ZNK6Assimp4Ogre8Skeleton12NumRootBonesEv(ptr noundef nonnull readonly align 8 captures(none) dereferenceable(52) %0) local_unnamed_addr #9 align 2 {
  %2 = load ptr, ptr %0, align 8
  %3 = getelementptr inbounds nuw i8, ptr %0, i64 8
  %4 = load ptr, ptr %3, align 8
  %.not7 = icmp eq ptr %2, %4
  br i1 %.not7, label %._crit_edge, label %.lr.ph

._crit_edge:                                      ; preds = %.lr.ph, %1
  %.0.lcssa = phi i64 [ 0, %1 ], [ %spec.select, %.lr.ph ]
  ret i64 %.0.lcssa

.lr.ph:                                           ; preds = %1, %.lr.ph
  %.09 = phi i64 [ %spec.select, %.lr.ph ], [ 0, %1 ]
  %.sroa.02.08 = phi ptr [ %12, %.lr.ph ], [ %2, %1 ]
  %5 = load ptr, ptr %.sroa.02.08, align 8
  %6 = getelementptr inbounds nuw i8, ptr %5, i64 48
  %7 = load i32, ptr %6, align 8
  %.not.i = icmp eq i32 %7, -1
  %8 = getelementptr inbounds nuw i8, ptr %5, i64 40
  %9 = load ptr, ptr %8, align 8
  %10 = icmp eq ptr %9, null
  %.not6 = select i1 %.not.i, i1 true, i1 %10
  %11 = zext i1 %.not6 to i64
  %spec.select = add i64 %.09, %11
  %12 = getelementptr inbounds nuw i8, ptr %.sroa.02.08, i64 8
  %.not = icmp eq ptr %12, %4
  br i1 %.not, label %._crit_edge, label %.lr.ph, !llvm.loop !63
}